; ModuleID = 'source-C-CXX/12/1419.c'
source_filename = "source-C-CXX/12/1419.c"
target datalayout = "e-m:e-p270:32:32-p271:32:32-p272:64:64-i64:64-f80:128-n8:16:32:64-S128"
target triple = "x86_64-pc-linux-gnu"

@.str = private unnamed_addr constant [4 x i8] c"%d\0A\00", align 1
@.str.1 = private unnamed_addr constant [3 x i8] c"%d\00", align 1
@.str.2 = private unnamed_addr constant [4 x i8] c"%d \00", align 1

; Function Attrs: nofree nounwind sspstrong uwtable
define dso_local i32 @main() local_unnamed_addr #0 {
  %1 = alloca i32, align 4
  %2 = alloca [20000 x i32], align 16
  %3 = alloca [20000 x i32], align 16
  %4 = bitcast i32* %1 to i8*
  call void @llvm.lifetime.start.p0i8(i64 4, i8* nonnull %4) #4
  %5 = call i32 (i8*, ...) @__isoc99_scanf(i8* getelementptr inbounds ([4 x i8], [4 x i8]* @.str, i64 0, i64 0), i32* nonnull %1)
  %6 = bitcast [20000 x i32]* %2 to i8*
  call void @llvm.lifetime.start.p0i8(i64 80000, i8* nonnull %6) #4
  call void @llvm.memset.p0i8.i64(i8* noundef nonnull align 16 dereferenceable(80000) %6, i8 0, i64 80000, i1 false)
  %7 = bitcast [20000 x i32]* %3 to i8*
  call void @llvm.lifetime.start.p0i8(i64 80000, i8* nonnull %7) #4
  call void @llvm.memset.p0i8.i64(i8* noundef nonnull align 16 dereferenceable(80000) %7, i8 0, i64 80000, i1 false)
  %8 = load i32, i32* %1, align 4, !tbaa !5
  %9 = icmp sgt i32 %8, 0
  br i1 %9, label %12, label %10

10:                                               ; preds = %0
  %11 = getelementptr inbounds [20000 x i32], [20000 x i32]* %3, i64 0, i64 0
  store i32 0, i32* %11, align 16, !tbaa !5
  br label %65

12:                                               ; preds = %0, %12
  %13 = phi i64 [ %16, %12 ], [ 0, %0 ]
  %14 = getelementptr inbounds [20000 x i32], [20000 x i32]* %2, i64 0, i64 %13
  %15 = call i32 (i8*, ...) @__isoc99_scanf(i8* getelementptr inbounds ([3 x i8], [3 x i8]* @.str.1, i64 0, i64 0), i32* nonnull %14)
  %16 = add nuw nsw i64 %13, 1
  %17 = load i32, i32* %1, align 4, !tbaa !5
  %18 = sext i32 %17 to i64
  %19 = icmp slt i64 %16, %18
  br i1 %19, label %12, label %20, !llvm.loop !9

20:                                               ; preds = %12
  %21 = getelementptr inbounds [20000 x i32], [20000 x i32]* %2, i64 0, i64 0
  %22 = load i32, i32* %21, align 16, !tbaa !5
  %23 = getelementptr inbounds [20000 x i32], [20000 x i32]* %3, i64 0, i64 0
  store i32 %22, i32* %23, align 16, !tbaa !5
  %24 = icmp sgt i32 %17, 1
  br i1 %24, label %25, label %65

25:                                               ; preds = %20
  %26 = zext i32 %17 to i64
  br label %27

27:                                               ; preds = %25, %48
  %28 = phi i64 [ 1, %25 ], [ %50, %48 ]
  %29 = phi i32 [ 1, %25 ], [ %49, %48 ]
  %30 = getelementptr inbounds [20000 x i32], [20000 x i32]* %2, i64 0, i64 %28
  %31 = load i32, i32* %30, align 4, !tbaa !5
  br label %38

32:                                               ; preds = %48
  %33 = getelementptr inbounds [20000 x i32], [20000 x i32]* %3, i64 0, i64 1
  %34 = load i32, i32* %33, align 4, !tbaa !5
  %35 = icmp eq i32 %34, 0
  br i1 %35, label %65, label %52

36:                                               ; preds = %38
  %37 = icmp eq i64 %43, %28
  br i1 %37, label %44, label %38, !llvm.loop !11

38:                                               ; preds = %27, %36
  %39 = phi i64 [ 0, %27 ], [ %43, %36 ]
  %40 = getelementptr inbounds [20000 x i32], [20000 x i32]* %2, i64 0, i64 %39
  %41 = load i32, i32* %40, align 4, !tbaa !5
  %42 = icmp eq i32 %31, %41
  %43 = add nuw nsw i64 %39, 1
  br i1 %42, label %48, label %36

44:                                               ; preds = %36
  %45 = sext i32 %29 to i64
  %46 = getelementptr inbounds [20000 x i32], [20000 x i32]* %3, i64 0, i64 %45
  store i32 %31, i32* %46, align 4, !tbaa !5
  %47 = add nsw i32 %29, 1
  br label %48

48:                                               ; preds = %38, %44
  %49 = phi i32 [ %47, %44 ], [ %29, %38 ]
  %50 = add nuw nsw i64 %28, 1
  %51 = icmp eq i64 %50, %26
  br i1 %51, label %32, label %27, !llvm.loop !12

52:                                               ; preds = %32, %52
  %53 = phi i64 [ %62, %52 ], [ 0, %32 ]
  %54 = phi i64 [ %58, %52 ], [ 1, %32 ]
  %55 = getelementptr inbounds [20000 x i32], [20000 x i32]* %3, i64 0, i64 %53
  %56 = load i32, i32* %55, align 4, !tbaa !5
  %57 = call i32 (i8*, ...) @printf(i8* nonnull dereferenceable(1) getelementptr inbounds ([4 x i8], [4 x i8]* @.str.2, i64 0, i64 0), i32 %56)
  %58 = add nuw i64 %54, 1
  %59 = getelementptr inbounds [20000 x i32], [20000 x i32]* %3, i64 0, i64 %58
  %60 = load i32, i32* %59, align 4, !tbaa !5
  %61 = icmp eq i32 %60, 0
  %62 = add nuw nsw i64 %53, 1
  br i1 %61, label %63, label %52, !llvm.loop !13

63:                                               ; preds = %52
  %64 = and i64 %54, 4294967295
  br label %65

65:                                               ; preds = %10, %20, %63, %32
  %66 = phi i64 [ 0, %32 ], [ %64, %63 ], [ 0, %20 ], [ 0, %10 ]
  %67 = getelementptr inbounds [20000 x i32], [20000 x i32]* %3, i64 0, i64 %66
  %68 = load i32, i32* %67, align 4, !tbaa !5
  %69 = call i32 (i8*, ...) @printf(i8* nonnull dereferenceable(1) getelementptr inbounds ([3 x i8], [3 x i8]* @.str.1, i64 0, i64 0), i32 %68)
  call void @llvm.lifetime.end.p0i8(i64 80000, i8* nonnull %7) #4
  call void @llvm.lifetime.end.p0i8(i64 80000, i8* nonnull %6) #4
  call void @llvm.lifetime.end.p0i8(i64 4, i8* nonnull %4) #4
  ret i32 0
}

; Function Attrs: argmemonly mustprogress nofree nosync nounwind willreturn
declare void @llvm.lifetime.start.p0i8(i64 immarg, i8* nocapture) #1

; Function Attrs: nofree nounwind
declare noundef i32 @__isoc99_scanf(i8* nocapture noundef readonly, ...) local_unnamed_addr #2

; Function Attrs: argmemonly mustprogress nofree nounwind willreturn writeonly
declare void @llvm.memset.p0i8.i64(i8* nocapture writeonly, i8, i64, i1 immarg) #3

; Function Attrs: nofree nounwind
declare noundef i32 @printf(i8* nocapture noundef readonly, ...) local_unnamed_addr #2

; Function Attrs: argmemonly mustprogress nofree nosync nounwind willreturn
declare void @llvm.lifetime.end.p0i8(i64 immarg, i8* nocapture) #1


!llvm.module.flags = !{!0, !1, !2, !3}
!llvm.ident = !{!4}

!0 = !{i32 1, !"wchar_size", i32 4}
!1 = !{i32 7, !"PIC Level", i32 2}
!2 = !{i32 7, !"PIE Level", i32 2}
!3 = !{i32 7, !"uwtable", i32 1}
!4 = !{!"clang version 13.0.0"}
!5 = !{!6, !6, i64 0}
!6 = !{!"int", !7, i64 0}
!7 = !{!"omnipotent char", !8, i64 0}
!8 = !{!"Simple C/C++ TBAA"}
!9 = distinct !{!9, !10}
!10 = !{!"llvm.loop.mustprogress"}
!11 = distinct !{!11, !10}
!12 = distinct !{!12, !10}
!13 = distinct !{!13, !10}
